target datalayout = "e-m:e-p270:32:32-p271:32:32-p272:64:64-i64:64-i128:128-f80:128-n8:16:32:64-S128"
target triple = "x86_64-pc-linux-gnu"

%"class.llvm::APFloat" = type { [8 x i8], %"union.llvm::APFloat::Storage" }
%"union.llvm::APFloat::Storage" = type { %"class.llvm::detail::DoubleAPFloat", [8 x i8] }
%"class.llvm::detail::DoubleAPFloat" = type { ptr, %"class.std::unique_ptr" }
%"class.std::unique_ptr" = type { %"struct.std::__uniq_ptr_data" }
%"struct.std::__uniq_ptr_data" = type { %"class.std::__uniq_ptr_impl" }
%"class.std::__uniq_ptr_impl" = type { %"class.std::tuple" }
%"class.std::tuple" = type { %"struct.std::_Tuple_impl" }
%"struct.std::_Tuple_impl" = type { %"struct.std::_Head_base.152" }
%"struct.std::_Head_base.152" = type { ptr }
%"class.(anonymous namespace)::FAddendCoef" = type { i8, i8, i16, [4 x i8], %"struct.llvm::AlignedCharArrayUnion.368" }
%"struct.llvm::AlignedCharArrayUnion.368" = type { [32 x i8] }

; Function Attrs: mustprogress nounwind uwtable
define linkonce_odr hidden noundef zeroext i1 @_ZN4llvm7APFloat10usesLayoutINS_6detail13DoubleAPFloatEEEbRKNS_12fltSemanticsE(ptr noundef nonnull align 1 %0) #0 comdat align 2 {
  %2 = alloca ptr, align 8
  store ptr %0, ptr %2, align 8
  %3 = load ptr, ptr %2, align 8
  %4 = call noundef nonnull align 1 ptr @_ZN4llvm11APFloatBase15PPCDoubleDoubleEv() #14
  %5 = icmp eq ptr %3, %4
  ret i1 %5
}

; Function Attrs: mustprogress nounwind uwtable
define linkonce_odr hidden noundef zeroext i1 @_ZN4llvm7APFloat10usesLayoutINS_6detail9IEEEFloatEEEbRKNS_12fltSemanticsE(ptr noundef nonnull align 1 %0) #0 comdat align 2 {
  %2 = alloca ptr, align 8
  store ptr %0, ptr %2, align 8
  %3 = load ptr, ptr %2, align 8
  %4 = call noundef nonnull align 1 ptr @_ZN4llvm11APFloatBase15PPCDoubleDoubleEv() #14
  %5 = icmp ne ptr %3, %4
  ret i1 %5
}

; Function Attrs: mustprogress nounwind uwtable
define linkonce_odr hidden noundef nonnull align 1 ptr @_ZNK4llvm7APFloat12getSemanticsEv(ptr noundef nonnull align 8 dereferenceable(32) %0) #0 comdat align 2 {
  %2 = alloca ptr, align 8
  store ptr %0, ptr %2, align 8
  %3 = load ptr, ptr %2, align 8
  %4 = getelementptr inbounds nuw %"class.llvm::APFloat", ptr %3, i32 0, i32 1
  %5 = load ptr, ptr %4, align 8
  ret ptr %5
}

; Function Attrs: mustprogress nounwind uwtable
define linkonce_odr hidden void @_ZN4llvm7APFloat7StorageC2IJRmEEERKNS_12fltSemanticsEDpOT_(ptr noundef nonnull align 8 dereferenceable(24) %0, ptr noundef nonnull align 1 %1, ptr noundef nonnull align 8 dereferenceable(8) %2) unnamed_addr #0 comdat align 2 {
  %4 = alloca ptr, align 8
  %5 = alloca ptr, align 8
  %6 = alloca ptr, align 8
  store ptr %0, ptr %4, align 8
  store ptr %1, ptr %5, align 8
  store ptr %2, ptr %6, align 8
  %7 = load ptr, ptr %4, align 8
  %8 = load ptr, ptr %5, align 8
  %9 = call noundef zeroext i1 @_ZN4llvm7APFloat10usesLayoutINS_6detail9IEEEFloatEEEbRKNS_12fltSemanticsE(ptr noundef nonnull align 1 %8)
  br i1 %9, label %10, label %14

10:                                               ; preds = %3
  %11 = load ptr, ptr %5, align 8
  %12 = load ptr, ptr %6, align 8
  %13 = load i64, ptr %12, align 8
  call void @_ZN4llvm6detail9IEEEFloatC1ERKNS_12fltSemanticsEm(ptr noundef nonnull align 8 dereferenceable(24) %7, ptr noundef nonnull align 1 %11, i64 noundef %13)
  br label %22

14:                                               ; preds = %3
  %15 = load ptr, ptr %5, align 8
  %16 = call noundef zeroext i1 @_ZN4llvm7APFloat10usesLayoutINS_6detail13DoubleAPFloatEEEbRKNS_12fltSemanticsE(ptr noundef nonnull align 1 %15)
  br i1 %16, label %17, label %21

17:                                               ; preds = %14
  %18 = load ptr, ptr %5, align 8
  %19 = load ptr, ptr %6, align 8
  %20 = load i64, ptr %19, align 8
  call void @_ZN4llvm6detail13DoubleAPFloatC1ERKNS_12fltSemanticsEm(ptr noundef nonnull align 8 dereferenceable(16) %7, ptr noundef nonnull align 1 %18, i64 noundef %20)
  br label %22

21:                                               ; preds = %14
  unreachable

22:                                               ; preds = %17, %10
  ret void
}

; Function Attrs: mustprogress nounwind uwtable
define linkonce_odr hidden void @_ZN4llvm7APFloat10changeSignEv(ptr noundef nonnull align 8 dereferenceable(32) %0) #0 comdat align 2 {
  %2 = alloca ptr, align 8
  store ptr %0, ptr %2, align 8
  %3 = load ptr, ptr %2, align 8
  br label %4

4:                                                ; preds = %1
  %5 = call noundef nonnull align 1 ptr @_ZNK4llvm7APFloat12getSemanticsEv(ptr noundef nonnull align 8 dereferenceable(32) %3)
  %6 = call noundef zeroext i1 @_ZN4llvm7APFloat10usesLayoutINS_6detail9IEEEFloatEEEbRKNS_12fltSemanticsE(ptr noundef nonnull align 1 %5)
  br i1 %6, label %7, label %9

7:                                                ; preds = %4
  %8 = getelementptr inbounds nuw %"class.llvm::APFloat", ptr %3, i32 0, i32 1
  call void @_ZN4llvm6detail9IEEEFloat10changeSignEv(ptr noundef nonnull align 8 dereferenceable(24) %8)
  br label %15

9:                                                ; preds = %4
  %10 = call noundef nonnull align 1 ptr @_ZNK4llvm7APFloat12getSemanticsEv(ptr noundef nonnull align 8 dereferenceable(32) %3)
  %11 = call noundef zeroext i1 @_ZN4llvm7APFloat10usesLayoutINS_6detail13DoubleAPFloatEEEbRKNS_12fltSemanticsE(ptr noundef nonnull align 1 %10)
  br i1 %11, label %12, label %14

12:                                               ; preds = %9
  %13 = getelementptr inbounds nuw %"class.llvm::APFloat", ptr %3, i32 0, i32 1
  call void @_ZN4llvm6detail13DoubleAPFloat10changeSignEv(ptr noundef nonnull align 8 dereferenceable(16) %13)
  br label %15

14:                                               ; preds = %9
  unreachable

15:                                               ; preds = %12, %7
  ret void
}

; Function Attrs: mustprogress nounwind uwtable
define linkonce_odr hidden void @_ZN4llvm7APFloatC2ERKNS_12fltSemanticsEm(ptr noundef nonnull align 8 dereferenceable(32) %0, ptr noundef nonnull align 1 %1, i64 noundef %2) unnamed_addr #0 comdat align 2 {
  %4 = alloca ptr, align 8
  %5 = alloca ptr, align 8
  %6 = alloca i64, align 8
  store ptr %0, ptr %4, align 8
  store ptr %1, ptr %5, align 8
  store i64 %2, ptr %6, align 8
  %7 = load ptr, ptr %4, align 8
  %8 = getelementptr inbounds nuw %"class.llvm::APFloat", ptr %7, i32 0, i32 1
  %9 = load ptr, ptr %5, align 8
  call void @_ZN4llvm7APFloat7StorageC2IJRmEEERKNS_12fltSemanticsEDpOT_(ptr noundef nonnull align 8 dereferenceable(24) %8, ptr noundef nonnull align 1 %9, ptr noundef nonnull align 8 dereferenceable(8) %6)
  ret void
}

; Function Attrs: mustprogress nounwind uwtable
define internal noundef ptr @_ZN12_GLOBAL__N_111FAddendCoef11getFpValPtrEv(ptr noundef nonnull align 8 dereferenceable(40) %0) #0 align 2 {
  %2 = alloca ptr, align 8
  store ptr %0, ptr %2, align 8
  %3 = load ptr, ptr %2, align 8
  %4 = getelementptr inbounds nuw %"class.(anonymous namespace)::FAddendCoef", ptr %3, i32 0, i32 4
  ret ptr %4
}

; Function Attrs: mustprogress nounwind uwtable
define internal noundef zeroext i1 @_ZNK12_GLOBAL__N_111FAddendCoef5isIntEv(ptr noundef nonnull align 8 dereferenceable(40) %0) #0 align 2 {
  %2 = alloca ptr, align 8
  store ptr %0, ptr %2, align 8
  %3 = load ptr, ptr %2, align 8
  %4 = getelementptr inbounds nuw %"class.(anonymous namespace)::FAddendCoef", ptr %3, i32 0, i32 0
  %5 = load i8, ptr %4, align 8
  %6 = trunc i8 %5 to i1
  %7 = xor i1 %6, true
  ret i1 %7
}

; Function Attrs: mustprogress nounwind uwtable
define internal void @_ZN12_GLOBAL__N_111FAddendCoef15convertToFpTypeERKN4llvm12fltSemanticsE(ptr noundef nonnull align 8 dereferenceable(40) %0, ptr noundef nonnull align 1 %1) #0 align 2 {
  %3 = alloca ptr, align 8
  %4 = alloca ptr, align 8
  %5 = alloca ptr, align 8
  store ptr %0, ptr %3, align 8
  store ptr %1, ptr %4, align 8
  %6 = load ptr, ptr %3, align 8
  %7 = call noundef zeroext i1 @_ZNK12_GLOBAL__N_111FAddendCoef5isIntEv(ptr noundef nonnull align 8 dereferenceable(40) %6)
  br i1 %7, label %9, label %8

8:                                                ; preds = %2
  br label %33

9:                                                ; preds = %2
  %10 = call noundef ptr @_ZN12_GLOBAL__N_111FAddendCoef11getFpValPtrEv(ptr noundef nonnull align 8 dereferenceable(40) %6)
  store ptr %10, ptr %5, align 8
  %11 = getelementptr inbounds nuw %"class.(anonymous namespace)::FAddendCoef", ptr %6, i32 0, i32 2
  %12 = load i16, ptr %11, align 2
  %13 = sext i16 %12 to i32
  %14 = icmp sgt i32 %13, 0
  br i1 %14, label %15, label %21

15:                                               ; preds = %9
  %16 = load ptr, ptr %5, align 8
  %17 = load ptr, ptr %4, align 8
  %18 = getelementptr inbounds nuw %"class.(anonymous namespace)::FAddendCoef", ptr %6, i32 0, i32 2
  %19 = load i16, ptr %18, align 2
  %20 = sext i16 %19 to i64
  call void @_ZN4llvm7APFloatC2ERKNS_12fltSemanticsEm(ptr noundef nonnull align 8 dereferenceable(32) %16, ptr noundef nonnull align 1 %17, i64 noundef %20)
  br label %30

21:                                               ; preds = %9
  %22 = load ptr, ptr %5, align 8
  %23 = load ptr, ptr %4, align 8
  %24 = getelementptr inbounds nuw %"class.(anonymous namespace)::FAddendCoef", ptr %6, i32 0, i32 2
  %25 = load i16, ptr %24, align 2
  %26 = sext i16 %25 to i32
  %27 = sub nsw i32 0, %26
  %28 = sext i32 %27 to i64
  call void @_ZN4llvm7APFloatC2ERKNS_12fltSemanticsEm(ptr noundef nonnull align 8 dereferenceable(32) %22, ptr noundef nonnull align 1 %23, i64 noundef %28)
  %29 = load ptr, ptr %5, align 8
  call void @_ZN4llvm7APFloat10changeSignEv(ptr noundef nonnull align 8 dereferenceable(32) %29)
  br label %30

30:                                               ; preds = %21, %15
  %31 = getelementptr inbounds nuw %"class.(anonymous namespace)::FAddendCoef", ptr %6, i32 0, i32 1
  store i8 1, ptr %31, align 1
  %32 = getelementptr inbounds nuw %"class.(anonymous namespace)::FAddendCoef", ptr %6, i32 0, i32 0
  store i8 1, ptr %32, align 8
  br label %33

33:                                               ; preds = %30, %8
  ret void
}