; Function Attrs: mustprogress nounwind uwtable
define internal fastcc void @_ZN12_GLOBAL__N_111FAddendCoef15convertToFpTypeERKN4llvm12fltSemanticsE(ptr noundef nonnull align 8 dereferenceable(40) %0, ptr noundef nonnull align 1 %1) unnamed_addr #0 align 2 {
  %.val = load i8, ptr %0, align 8
  %3 = trunc i8 %.val to i1
  br i1 %3, label %25, label %4

4:                                                ; preds = %2
  %5 = getelementptr inbounds nuw i8, ptr %0, i64 2
  %6 = load i16, ptr %5, align 2
  %7 = icmp sgt i16 %6, 0
  br i1 %7, label %8, label %14

8:                                                ; preds = %4
  %9 = zext nneg i16 %6 to i64
  %10 = getelementptr inbounds nuw i8, ptr %0, i64 16
  %11 = tail call noundef nonnull align 1 ptr @_ZN4llvm11APFloatBase15PPCDoubleDoubleEv() #19
  %.not.i.i = icmp eq ptr %1, %11
  br i1 %.not.i.i, label %13, label %12

12:                                               ; preds = %8
  tail call void @_ZN4llvm6detail9IEEEFloatC1ERKNS_12fltSemanticsEm(ptr noundef nonnull align 8 dereferenceable(24) %10, ptr noundef nonnull align 1 %1, i64 noundef %9) #16
  br label %_ZN4llvm7APFloatC2ERKNS_12fltSemanticsEm.exit

13:                                               ; preds = %8
  tail call void @_ZN4llvm6detail13DoubleAPFloatC1ERKNS_12fltSemanticsEm(ptr noundef nonnull align 8 dereferenceable(24) %10, ptr noundef nonnull align 1 %1, i64 noundef %9) #16
  br label %_ZN4llvm7APFloatC2ERKNS_12fltSemanticsEm.exit

14:                                               ; preds = %4
  %15 = sext i16 %6 to i64
  %16 = sub nsw i64 0, %15
  %17 = getelementptr inbounds nuw i8, ptr %0, i64 16
  %18 = tail call noundef nonnull align 1 ptr @_ZN4llvm11APFloatBase15PPCDoubleDoubleEv() #19
  %.not.i.i6 = icmp eq ptr %1, %18
  br i1 %.not.i.i6, label %20, label %19

19:                                               ; preds = %14
  tail call void @_ZN4llvm6detail9IEEEFloatC1ERKNS_12fltSemanticsEm(ptr noundef nonnull align 8 dereferenceable(24) %17, ptr noundef nonnull align 1 %1, i64 noundef %16) #16
  br label %_ZN4llvm7APFloatC2ERKNS_12fltSemanticsEm.exit7

20:                                               ; preds = %14
  tail call void @_ZN4llvm6detail13DoubleAPFloatC1ERKNS_12fltSemanticsEm(ptr noundef nonnull align 8 dereferenceable(24) %17, ptr noundef nonnull align 1 %1, i64 noundef %16) #16
  br label %_ZN4llvm7APFloatC2ERKNS_12fltSemanticsEm.exit7

_ZN4llvm7APFloatC2ERKNS_12fltSemanticsEm.exit7:   ; preds = %19, %20
  %21 = load ptr, ptr %17, align 8
  %.not.i = icmp eq ptr %21, %18
  br i1 %.not.i, label %23, label %22

22:                                               ; preds = %_ZN4llvm7APFloatC2ERKNS_12fltSemanticsEm.exit7
  tail call void @_ZN4llvm6detail9IEEEFloat10changeSignEv(ptr noundef nonnull align 8 dereferenceable(24) %17) #16
  br label %_ZN4llvm7APFloatC2ERKNS_12fltSemanticsEm.exit

23:                                               ; preds = %_ZN4llvm7APFloatC2ERKNS_12fltSemanticsEm.exit7
  tail call void @_ZN4llvm6detail13DoubleAPFloat10changeSignEv(ptr noundef nonnull align 8 dereferenceable(16) %17) #16
  br label %_ZN4llvm7APFloatC2ERKNS_12fltSemanticsEm.exit

_ZN4llvm7APFloatC2ERKNS_12fltSemanticsEm.exit:    ; preds = %23, %22, %13, %12
  %24 = getelementptr inbounds nuw i8, ptr %0, i64 1
  store i8 1, ptr %24, align 1
  store i8 1, ptr %0, align 8
  br label %25

25:                                               ; preds = %2, %_ZN4llvm7APFloatC2ERKNS_12fltSemanticsEm.exit
  ret void
}